target datalayout = "e-m:e-p270:32:32-p271:32:32-p272:64:64-i64:64-i128:128-f80:128-n8:16:32:64-S128"
target triple = "x86_64-pc-linux-gnu"

%class.QString = type { %struct.QArrayDataPointer }
%struct.QArrayDataPointer = type { ptr, ptr, i64 }
%class.ProtocolPreferencesMenu = type { %class.QMenu, %class.QString, ptr, ptr }
%class.QMenu = type { %class.QWidget }
%class.QWidget = type { %class.QObject, %class.QPaintDevice.base, ptr }
%class.QObject = type { ptr, %class.QScopedPointer }
%class.QScopedPointer = type { ptr }
%class.QPaintDevice.base = type <{ ptr, i16 }>
%struct.pref_module = type { ptr, ptr, ptr, ptr, ptr, ptr, ptr, ptr, i32, i32, i8, i8, i32 }
%class.QAction = type { %class.QObject }
%class.EnumPreferenceAction = type <{ %class.QAction, ptr, i32, [4 x i8] }>

@mainApp = external global ptr, align 8

; Function Attrs: mustprogress nounwind null_pointer_is_valid sspstrong uwtable
define linkonce_odr noundef ptr @_ZN20EnumPreferenceAction7getPrefEv(ptr noundef align 8 dereferenceable_or_null(28) %0) #7 comdat align 2 {
  %2 = alloca ptr, align 8
  store ptr %0, ptr %2, align 8
  %3 = load ptr, ptr %2, align 8
  %4 = getelementptr inbounds nuw %class.EnumPreferenceAction, ptr %3, i32 0, i32 1
  %5 = load ptr, ptr %4, align 8
  ret ptr %5
}

; Function Attrs: mustprogress null_pointer_is_valid sspstrong uwtable
define linkonce_odr noundef i32 @_ZN20EnumPreferenceAction12setEnumValueEv(ptr noundef align 8 dereferenceable_or_null(28) %0) #0 comdat align 2 {
  %2 = alloca ptr, align 8
  store ptr %0, ptr %2, align 8
  %3 = load ptr, ptr %2, align 8
  %4 = getelementptr inbounds nuw %class.EnumPreferenceAction, ptr %3, i32 0, i32 1
  %5 = load ptr, ptr %4, align 8
  %6 = getelementptr inbounds nuw %class.EnumPreferenceAction, ptr %3, i32 0, i32 2
  %7 = load i32, ptr %6, align 8
  %8 = call i32 @prefs_set_enum_value(ptr noundef %5, i32 noundef %7, i32 noundef 2)
  ret i32 %8
}

; Function Attrs: mustprogress null_pointer_is_valid sspstrong uwtable
define void @_ZN23ProtocolPreferencesMenu23enumPreferenceTriggeredEv(ptr noundef align 8 dereferenceable_or_null(80) %0) #0 align 2 {
  %2 = alloca ptr, align 8
  %3 = alloca ptr, align 8
  %4 = alloca i32, align 4
  %5 = alloca i32, align 4
  store ptr %0, ptr %2, align 8
  %6 = load ptr, ptr %2, align 8
  call void @llvm.lifetime.start.p0(i64 8, ptr %3) #13
  %7 = call noundef ptr @_ZNK7QObject6senderEv(ptr noundef align 8 dereferenceable_or_null(16) %6)
  store ptr %7, ptr %3, align 8
  %8 = load ptr, ptr %3, align 8
  %9 = icmp ne ptr %8, null
  br i1 %9, label %11, label %10

10:                                               ; preds = %1
  store i32 1, ptr %4, align 4
  br label %40

11:                                               ; preds = %1
  call void @llvm.lifetime.start.p0(i64 4, ptr %5) #13
  %12 = load ptr, ptr %3, align 8
  %13 = call noundef i32 @_ZN20EnumPreferenceAction12setEnumValueEv(ptr noundef align 8 dereferenceable_or_null(28) %12)
  store i32 %13, ptr %5, align 4
  %14 = load i32, ptr %5, align 4
  %15 = icmp ne i32 %14, 0
  br i1 %15, label %16, label %39

16:                                               ; preds = %11
  %17 = load i32, ptr %5, align 4
  %18 = getelementptr inbounds nuw %class.ProtocolPreferencesMenu, ptr %6, i32 0, i32 2
  %19 = load ptr, ptr %18, align 8
  %20 = getelementptr inbounds nuw %struct.pref_module, ptr %19, i32 0, i32 9
  %21 = load i32, ptr %20, align 4
  %22 = or i32 %21, %17
  store i32 %22, ptr %20, align 4
  %23 = getelementptr inbounds nuw %class.ProtocolPreferencesMenu, ptr %6, i32 0, i32 2
  %24 = load ptr, ptr %23, align 8
  call void @prefs_apply(ptr noundef %24)
  call void @prefs_main_write()
  %25 = getelementptr inbounds nuw %class.ProtocolPreferencesMenu, ptr %6, i32 0, i32 2
  %26 = load ptr, ptr %25, align 8
  %27 = getelementptr inbounds nuw %struct.pref_module, ptr %26, i32 0, i32 0
  %28 = load ptr, ptr %27, align 8
  %29 = load ptr, ptr %3, align 8
  %30 = call noundef ptr @_ZN20EnumPreferenceAction7getPrefEv(ptr noundef align 8 dereferenceable_or_null(28) %29)
  %31 = call ptr @prefs_get_name(ptr noundef %30)
  call void @commandline_options_drop(ptr noundef %28, ptr noundef %31)
  %32 = load i32, ptr %5, align 4
  %33 = and i32 %32, 8
  %34 = icmp ne i32 %33, 0
  br i1 %34, label %35, label %37

35:                                               ; preds = %16
  %36 = load ptr, ptr @mainApp, align 8
  call void @_ZN15MainApplication13emitAppSignalENS_9AppSignalE(ptr noundef align 8 dereferenceable_or_null(216) %36, i32 noundef 4)
  br label %37

37:                                               ; preds = %35, %16
  %38 = load ptr, ptr @mainApp, align 8
  call void @_ZN15MainApplication13emitAppSignalENS_9AppSignalE(ptr noundef align 8 dereferenceable_or_null(216) %38, i32 noundef 8)
  br label %39

39:                                               ; preds = %37, %11
  call void @llvm.lifetime.end.p0(i64 4, ptr %5) #13
  store i32 0, ptr %4, align 4
  br label %40

40:                                               ; preds = %39, %10
  call void @llvm.lifetime.end.p0(i64 8, ptr %3) #13
  %41 = load i32, ptr %4, align 4
  switch i32 %41, label %43 [
    i32 0, label %42
    i32 1, label %42
  ]

42:                                               ; preds = %40, %40
  ret void

43:                                               ; preds = %40
  unreachable
}