; Function Attrs: mustprogress null_pointer_is_valid sspstrong uwtable
define void @_ZN23ProtocolPreferencesMenu23enumPreferenceTriggeredEv(ptr noundef align 8 dereferenceable_or_null(80) %0) #0 align 2 {
  %2 = tail call noundef ptr @_ZNK7QObject6senderEv(ptr noundef align 8 dereferenceable_or_null(16) %0)
  %.not = icmp eq ptr %2, null
  br i1 %.not, label %25, label %3

3:                                                ; preds = %1
  %4 = getelementptr inbounds nuw i8, ptr %2, i64 16
  %5 = load ptr, ptr %4, align 8
  %6 = getelementptr inbounds nuw i8, ptr %2, i64 24
  %7 = load i32, ptr %6, align 8
  %8 = tail call noundef i32 @prefs_set_enum_value(ptr noundef %5, i32 noundef %7, i32 noundef 2)
  %.not7 = icmp eq i32 %8, 0
  br i1 %.not7, label %25, label %9

9:                                                ; preds = %3
  %10 = getelementptr inbounds nuw i8, ptr %0, i64 64
  %11 = load ptr, ptr %10, align 8
  %12 = getelementptr inbounds nuw i8, ptr %11, i64 68
  %13 = load i32, ptr %12, align 4
  %14 = or i32 %13, %8
  store i32 %14, ptr %12, align 4
  %15 = load ptr, ptr %10, align 8
  tail call void @prefs_apply(ptr noundef %15)
  tail call void @prefs_main_write()
  %16 = load ptr, ptr %10, align 8
  %17 = load ptr, ptr %16, align 8
  %18 = load ptr, ptr %4, align 8
  %19 = tail call ptr @prefs_get_name(ptr noundef %18)
  tail call void @commandline_options_drop(ptr noundef %17, ptr noundef %19)
  %20 = and i32 %8, 8
  %.not8 = icmp eq i32 %20, 0
  br i1 %.not8, label %23, label %21

21:                                               ; preds = %9
  %22 = load ptr, ptr @mainApp, align 8
  tail call void @_ZN15MainApplication13emitAppSignalENS_9AppSignalE(ptr noundef align 8 dereferenceable_or_null(216) %22, i32 noundef 4)
  br label %23

23:                                               ; preds = %21, %9
  %24 = load ptr, ptr @mainApp, align 8
  tail call void @_ZN15MainApplication13emitAppSignalENS_9AppSignalE(ptr noundef align 8 dereferenceable_or_null(216) %24, i32 noundef 8)
  br label %25

25:                                               ; preds = %3, %23, %1
  ret void
}